; ModuleID = '8/467.c'
source_filename = "8/467.c"
target datalayout = "e-m:e-p270:32:32-p271:32:32-p272:64:64-i64:64-f80:128-n8:16:32:64-S128"
target triple = "x86_64-pc-linux-gnu"

@.str = private unnamed_addr constant [6 x i8] c"%d %d\00", align 1
@.str.1 = private unnamed_addr constant [3 x i8] c"%d\00", align 1
@.str.2 = private unnamed_addr constant [4 x i8] c" %d\00", align 1

; Function Attrs: noinline nounwind uwtable
define dso_local i32 @main() #0 {
  %1 = alloca i32, align 4
  %2 = alloca [100 x i32], align 16
  %3 = alloca [100 x i32], align 16
  %4 = alloca i32, align 4
  %5 = alloca i32, align 4
  %6 = alloca i32, align 4
  %7 = alloca i32, align 4
  %8 = alloca i32, align 4
  store i32 0, i32* %1, align 4
  %9 = call i32 (i8*, ...) @__isoc99_scanf(i8* getelementptr inbounds ([6 x i8], [6 x i8]* @.str, i64 0, i64 0), i32* %4, i32* %5)
  store i32 0, i32* %6, align 4
  br label %10

10:                                               ; preds = %19, %0
  %11 = load i32, i32* %6, align 4
  %12 = load i32, i32* %4, align 4
  %13 = icmp slt i32 %11, %12
  br i1 %13, label %14, label %22

14:                                               ; preds = %10
  %15 = load i32, i32* %6, align 4
  %16 = sext i32 %15 to i64
  %17 = getelementptr inbounds [100 x i32], [100 x i32]* %2, i64 0, i64 %16
  %18 = call i32 (i8*, ...) @__isoc99_scanf(i8* getelementptr inbounds ([3 x i8], [3 x i8]* @.str.1, i64 0, i64 0), i32* %17)
  br label %19

19:                                               ; preds = %14
  %20 = load i32, i32* %6, align 4
  %21 = add nsw i32 %20, 1
  store i32 %21, i32* %6, align 4
  br label %10

22:                                               ; preds = %10
  store i32 0, i32* %6, align 4
  br label %23

23:                                               ; preds = %32, %22
  %24 = load i32, i32* %6, align 4
  %25 = load i32, i32* %5, align 4
  %26 = icmp slt i32 %24, %25
  br i1 %26, label %27, label %35

27:                                               ; preds = %23
  %28 = load i32, i32* %6, align 4
  %29 = sext i32 %28 to i64
  %30 = getelementptr inbounds [100 x i32], [100 x i32]* %3, i64 0, i64 %29
  %31 = call i32 (i8*, ...) @__isoc99_scanf(i8* getelementptr inbounds ([3 x i8], [3 x i8]* @.str.1, i64 0, i64 0), i32* %30)
  br label %32

32:                                               ; preds = %27
  %33 = load i32, i32* %6, align 4
  %34 = add nsw i32 %33, 1
  store i32 %34, i32* %6, align 4
  br label %23

35:                                               ; preds = %23
  store i32 0, i32* %6, align 4
  br label %36

36:                                               ; preds = %83, %35
  %37 = load i32, i32* %6, align 4
  %38 = load i32, i32* %4, align 4
  %39 = sub nsw i32 %38, 1
  %40 = icmp slt i32 %37, %39
  br i1 %40, label %41, label %86

41:                                               ; preds = %36
  store i32 0, i32* %8, align 4
  br label %42

42:                                               ; preds = %79, %41
  %43 = load i32, i32* %8, align 4
  %44 = load i32, i32* %4, align 4
  %45 = sub nsw i32 %44, 1
  %46 = load i32, i32* %6, align 4
  %47 = sub nsw i32 %45, %46
  %48 = icmp slt i32 %43, %47
  br i1 %48, label %49, label %82

49:                                               ; preds = %42
  %50 = load i32, i32* %8, align 4
  %51 = sext i32 %50 to i64
  %52 = getelementptr inbounds [100 x i32], [100 x i32]* %2, i64 0, i64 %51
  %53 = load i32, i32* %52, align 4
  %54 = load i32, i32* %8, align 4
  %55 = add nsw i32 %54, 1
  %56 = sext i32 %55 to i64
  %57 = getelementptr inbounds [100 x i32], [100 x i32]* %2, i64 0, i64 %56
  %58 = load i32, i32* %57, align 4
  %59 = icmp sgt i32 %53, %58
  br i1 %59, label %60, label %78

60:                                               ; preds = %49
  %61 = load i32, i32* %8, align 4
  %62 = sext i32 %61 to i64
  %63 = getelementptr inbounds [100 x i32], [100 x i32]* %2, i64 0, i64 %62
  %64 = load i32, i32* %63, align 4
  store i32 %64, i32* %7, align 4
  %65 = load i32, i32* %8, align 4
  %66 = add nsw i32 %65, 1
  %67 = sext i32 %66 to i64
  %68 = getelementptr inbounds [100 x i32], [100 x i32]* %2, i64 0, i64 %67
  %69 = load i32, i32* %68, align 4
  %70 = load i32, i32* %8, align 4
  %71 = sext i32 %70 to i64
  %72 = getelementptr inbounds [100 x i32], [100 x i32]* %2, i64 0, i64 %71
  store i32 %69, i32* %72, align 4
  %73 = load i32, i32* %7, align 4
  %74 = load i32, i32* %8, align 4
  %75 = add nsw i32 %74, 1
  %76 = sext i32 %75 to i64
  %77 = getelementptr inbounds [100 x i32], [100 x i32]* %2, i64 0, i64 %76
  store i32 %73, i32* %77, align 4
  br label %78

78:                                               ; preds = %60, %49
  br label %79

79:                                               ; preds = %78
  %80 = load i32, i32* %8, align 4
  %81 = add nsw i32 %80, 1
  store i32 %81, i32* %8, align 4
  br label %42

82:                                               ; preds = %42
  br label %83

83:                                               ; preds = %82
  %84 = load i32, i32* %6, align 4
  %85 = add nsw i32 %84, 1
  store i32 %85, i32* %6, align 4
  br label %36

86:                                               ; preds = %36
  store i32 0, i32* %6, align 4
  br label %87

87:                                               ; preds = %134, %86
  %88 = load i32, i32* %6, align 4
  %89 = load i32, i32* %5, align 4
  %90 = sub nsw i32 %89, 1
  %91 = icmp slt i32 %88, %90
  br i1 %91, label %92, label %137

92:                                               ; preds = %87
  store i32 0, i32* %8, align 4
  br label %93

93:                                               ; preds = %130, %92
  %94 = load i32, i32* %8, align 4
  %95 = load i32, i32* %5, align 4
  %96 = sub nsw i32 %95, 1
  %97 = load i32, i32* %6, align 4
  %98 = sub nsw i32 %96, %97
  %99 = icmp slt i32 %94, %98
  br i1 %99, label %100, label %133

100:                                              ; preds = %93
  %101 = load i32, i32* %8, align 4
  %102 = sext i32 %101 to i64
  %103 = getelementptr inbounds [100 x i32], [100 x i32]* %3, i64 0, i64 %102
  %104 = load i32, i32* %103, align 4
  %105 = load i32, i32* %8, align 4
  %106 = add nsw i32 %105, 1
  %107 = sext i32 %106 to i64
  %108 = getelementptr inbounds [100 x i32], [100 x i32]* %3, i64 0, i64 %107
  %109 = load i32, i32* %108, align 4
  %110 = icmp sgt i32 %104, %109
  br i1 %110, label %111, label %129

111:                                              ; preds = %100
  %112 = load i32, i32* %8, align 4
  %113 = sext i32 %112 to i64
  %114 = getelementptr inbounds [100 x i32], [100 x i32]* %3, i64 0, i64 %113
  %115 = load i32, i32* %114, align 4
  store i32 %115, i32* %7, align 4
  %116 = load i32, i32* %8, align 4
  %117 = add nsw i32 %116, 1
  %118 = sext i32 %117 to i64
  %119 = getelementptr inbounds [100 x i32], [100 x i32]* %3, i64 0, i64 %118
  %120 = load i32, i32* %119, align 4
  %121 = load i32, i32* %8, align 4
  %122 = sext i32 %121 to i64
  %123 = getelementptr inbounds [100 x i32], [100 x i32]* %3, i64 0, i64 %122
  store i32 %120, i32* %123, align 4
  %124 = load i32, i32* %7, align 4
  %125 = load i32, i32* %8, align 4
  %126 = add nsw i32 %125, 1
  %127 = sext i32 %126 to i64
  %128 = getelementptr inbounds [100 x i32], [100 x i32]* %3, i64 0, i64 %127
  store i32 %124, i32* %128, align 4
  br label %129

129:                                              ; preds = %111, %100
  br label %130

130:                                              ; preds = %129
  %131 = load i32, i32* %8, align 4
  %132 = add nsw i32 %131, 1
  store i32 %132, i32* %8, align 4
  br label %93

133:                                              ; preds = %93
  br label %134

134:                                              ; preds = %133
  %135 = load i32, i32* %6, align 4
  %136 = add nsw i32 %135, 1
  store i32 %136, i32* %6, align 4
  br label %87

137:                                              ; preds = %87
  %138 = getelementptr inbounds [100 x i32], [100 x i32]* %2, i64 0, i64 0
  %139 = load i32, i32* %138, align 16
  %140 = call i32 (i8*, ...) @printf(i8* getelementptr inbounds ([3 x i8], [3 x i8]* @.str.1, i64 0, i64 0), i32 %139)
  store i32 1, i32* %6, align 4
  br label %141

141:                                              ; preds = %151, %137
  %142 = load i32, i32* %6, align 4
  %143 = load i32, i32* %4, align 4
  %144 = icmp slt i32 %142, %143
  br i1 %144, label %145, label %154

145:                                              ; preds = %141
  %146 = load i32, i32* %6, align 4
  %147 = sext i32 %146 to i64
  %148 = getelementptr inbounds [100 x i32], [100 x i32]* %2, i64 0, i64 %147
  %149 = load i32, i32* %148, align 4
  %150 = call i32 (i8*, ...) @printf(i8* getelementptr inbounds ([4 x i8], [4 x i8]* @.str.2, i64 0, i64 0), i32 %149)
  br label %151

151:                                              ; preds = %145
  %152 = load i32, i32* %6, align 4
  %153 = add nsw i32 %152, 1
  store i32 %153, i32* %6, align 4
  br label %141

154:                                              ; preds = %141
  store i32 0, i32* %6, align 4
  br label %155

155:                                              ; preds = %165, %154
  %156 = load i32, i32* %6, align 4
  %157 = load i32, i32* %5, align 4
  %158 = icmp slt i32 %156, %157
  br i1 %158, label %159, label %168

159:                                              ; preds = %155
  %160 = load i32, i32* %6, align 4
  %161 = sext i32 %160 to i64
  %162 = getelementptr inbounds [100 x i32], [100 x i32]* %3, i64 0, i64 %161
  %163 = load i32, i32* %162, align 4
  %164 = call i32 (i8*, ...) @printf(i8* getelementptr inbounds ([4 x i8], [4 x i8]* @.str.2, i64 0, i64 0), i32 %163)
  br label %165

165:                                              ; preds = %159
  %166 = load i32, i32* %6, align 4
  %167 = add nsw i32 %166, 1
  store i32 %167, i32* %6, align 4
  br label %155

168:                                              ; preds = %155
  ret i32 0
}

declare dso_local i32 @__isoc99_scanf(i8*, ...) #1

declare dso_local i32 @printf(i8*, ...) #1


!llvm.module.flags = !{!0}
!llvm.ident = !{!1}

!0 = !{i32 1, !"wchar_size", i32 4}
!1 = !{!"clang version 10.0.0-4ubuntu1 "}
